; Function Attrs: nounwind uwtable
define hidden void @Curl_ssl_scache_unlock(ptr noundef %0) local_unnamed_addr #0 {
  %2 = getelementptr inbounds nuw i8, ptr %0, i64 224
  %3 = load ptr, ptr %2, align 8, !tbaa !45
  %.not = icmp eq ptr %3, null
  br i1 %.not, label %10, label %4

4:                                                ; preds = %1
  %5 = getelementptr inbounds nuw i8, ptr %3, i64 4
  %6 = load i32, ptr %5, align 4, !tbaa !106
  %7 = and i32 %6, 16
  %.not3 = icmp eq i32 %7, 0
  br i1 %.not3, label %10, label %8

8:                                                ; preds = %4
  %9 = tail call i32 @Curl_share_unlock(ptr noundef nonnull %0, i32 noundef 4) #9
  br label %10

10:                                               ; preds = %8, %4, %1
  ret void
}